target datalayout = "e-m:e-p270:32:32-p271:32:32-p272:64:64-i64:64-i128:128-f80:128-n8:16:32:64-S128"
target triple = "x86_64-pc-linux-gnu"

%struct.Vec_Int_t_ = type { i32, i32, ptr }
%struct.Str_Ntk_t_ = type { i32, i32, ptr, %struct.Vec_Int_t_, [8 x i32], i32, i32, i32 }
%struct.Str_Obj_t_ = type { i32, i32, i32, i32 }
%struct.Str_Mux_t_ = type { i32, i32, i32, i32, [3 x %struct.Str_Edg_t_] }
%struct.Str_Edg_t_ = type { i32, i32, i32, i32 }

; Function Attrs: inlinehint nounwind uwtable
define internal i32 @Abc_LitIsCompl(i32 noundef %0) #3 {
  %2 = alloca i32, align 4
  store i32 %0, ptr %2, align 4, !tbaa !39
  %3 = load i32, ptr %2, align 4, !tbaa !39
  %4 = and i32 %3, 1
  ret i32 %4
}

; Function Attrs: inlinehint nounwind uwtable
define internal i32 @Vec_IntEntry(ptr noundef %0, i32 noundef %1) #3 {
  %3 = alloca ptr, align 8
  %4 = alloca i32, align 4
  store ptr %0, ptr %3, align 8, !tbaa !61
  store i32 %1, ptr %4, align 4, !tbaa !39
  %5 = load ptr, ptr %3, align 8, !tbaa !61
  %6 = getelementptr inbounds nuw %struct.Vec_Int_t_, ptr %5, i32 0, i32 2
  %7 = load ptr, ptr %6, align 8, !tbaa !69
  %8 = load i32, ptr %4, align 4, !tbaa !39
  %9 = sext i32 %8 to i64
  %10 = getelementptr inbounds i32, ptr %7, i64 %9
  %11 = load i32, ptr %10, align 4, !tbaa !39
  ret i32 %11
}

; Function Attrs: inlinehint nounwind uwtable
define internal i32 @Abc_Lit2Var(i32 noundef %0) #3 {
  %2 = alloca i32, align 4
  store i32 %0, ptr %2, align 4, !tbaa !39
  %3 = load i32, ptr %2, align 4, !tbaa !39
  %4 = ashr i32 %3, 1
  ret i32 %4
}

; Function Attrs: inlinehint nounwind uwtable
define internal ptr @Str_ObjFanin(ptr noundef %0, ptr noundef %1, i32 noundef %2) #3 {
  %4 = alloca ptr, align 8
  %5 = alloca ptr, align 8
  %6 = alloca i32, align 4
  store ptr %0, ptr %4, align 8, !tbaa !8
  store ptr %1, ptr %5, align 8, !tbaa !35
  store i32 %2, ptr %6, align 4, !tbaa !39
  %7 = load ptr, ptr %4, align 8, !tbaa !8
  %8 = load ptr, ptr %4, align 8, !tbaa !8
  %9 = load ptr, ptr %5, align 8, !tbaa !35
  %10 = load i32, ptr %6, align 4, !tbaa !39
  %11 = call i32 @Str_ObjFaninId(ptr noundef %8, ptr noundef %9, i32 noundef %10)
  %12 = call ptr @Str_NtkObj(ptr noundef %7, i32 noundef %11)
  ret ptr %12
}

; Function Attrs: inlinehint nounwind uwtable
define internal i32 @Str_ObjFaninId(ptr noundef %0, ptr noundef %1, i32 noundef %2) #3 {
  %4 = alloca ptr, align 8
  %5 = alloca ptr, align 8
  %6 = alloca i32, align 4
  store ptr %0, ptr %4, align 8, !tbaa !8
  store ptr %1, ptr %5, align 8, !tbaa !35
  store i32 %2, ptr %6, align 4, !tbaa !39
  %7 = load ptr, ptr %4, align 8, !tbaa !8
  %8 = getelementptr inbounds nuw %struct.Str_Ntk_t_, ptr %7, i32 0, i32 3
  %9 = load ptr, ptr %5, align 8, !tbaa !35
  %10 = getelementptr inbounds nuw %struct.Str_Obj_t_, ptr %9, i32 0, i32 1
  %11 = load i32, ptr %10, align 4, !tbaa !110
  %12 = load i32, ptr %6, align 4, !tbaa !39
  %13 = add nsw i32 %11, %12
  %14 = call i32 @Vec_IntEntry(ptr noundef %8, i32 noundef %13)
  %15 = call i32 @Abc_Lit2Var(i32 noundef %14)
  ret i32 %15
}

; Function Attrs: inlinehint nounwind uwtable
define internal i32 @Str_ObjFaninC(ptr noundef %0, ptr noundef %1, i32 noundef %2) #3 {
  %4 = alloca ptr, align 8
  %5 = alloca ptr, align 8
  %6 = alloca i32, align 4
  store ptr %0, ptr %4, align 8, !tbaa !8
  store ptr %1, ptr %5, align 8, !tbaa !35
  store i32 %2, ptr %6, align 4, !tbaa !39
  %7 = load ptr, ptr %4, align 8, !tbaa !8
  %8 = getelementptr inbounds nuw %struct.Str_Ntk_t_, ptr %7, i32 0, i32 3
  %9 = load ptr, ptr %5, align 8, !tbaa !35
  %10 = getelementptr inbounds nuw %struct.Str_Obj_t_, ptr %9, i32 0, i32 1
  %11 = load i32, ptr %10, align 4, !tbaa !110
  %12 = load i32, ptr %6, align 4, !tbaa !39
  %13 = add nsw i32 %11, %12
  %14 = call i32 @Vec_IntEntry(ptr noundef %8, i32 noundef %13)
  %15 = call i32 @Abc_LitIsCompl(i32 noundef %14)
  ret i32 %15
}

; Function Attrs: inlinehint nounwind uwtable
define internal ptr @Str_NtkObj(ptr noundef %0, i32 noundef %1) #3 {
  %3 = alloca ptr, align 8
  %4 = alloca i32, align 4
  store ptr %0, ptr %3, align 8, !tbaa !8
  store i32 %1, ptr %4, align 4, !tbaa !39
  %5 = load ptr, ptr %3, align 8, !tbaa !8
  %6 = getelementptr inbounds nuw %struct.Str_Ntk_t_, ptr %5, i32 0, i32 2
  %7 = load ptr, ptr %6, align 8, !tbaa !32
  %8 = load i32, ptr %4, align 4, !tbaa !39
  %9 = sext i32 %8 to i64
  %10 = getelementptr inbounds %struct.Str_Obj_t_, ptr %7, i64 %9
  ret ptr %10
}

; Function Attrs: nounwind uwtable
define void @Str_MuxCreate(ptr noundef %0, ptr noundef %1, i32 noundef %2, i32 noundef %3, ptr noundef %4, i32 noundef %5) #0 {
  %7 = alloca ptr, align 8
  %8 = alloca ptr, align 8
  %9 = alloca i32, align 4
  %10 = alloca i32, align 4
  %11 = alloca ptr, align 8
  %12 = alloca i32, align 4
  %13 = alloca ptr, align 8
  %14 = alloca ptr, align 8
  %15 = alloca i32, align 4
  %16 = alloca i32, align 4
  %17 = alloca i32, align 4
  store ptr %0, ptr %7, align 8, !tbaa !153
  store ptr %1, ptr %8, align 8, !tbaa !8
  store i32 %2, ptr %9, align 4, !tbaa !39
  store i32 %3, ptr %10, align 4, !tbaa !39
  store ptr %4, ptr %11, align 8, !tbaa !61
  store i32 %5, ptr %12, align 4, !tbaa !39
  call void @llvm.lifetime.start.p0(i64 8, ptr %13) #13
  call void @llvm.lifetime.start.p0(i64 8, ptr %14) #13
  call void @llvm.lifetime.start.p0(i64 4, ptr %15) #13
  call void @llvm.lifetime.start.p0(i64 4, ptr %16) #13
  call void @llvm.lifetime.start.p0(i64 4, ptr %17) #13
  store i32 0, ptr %17, align 4, !tbaa !39
  %18 = load ptr, ptr %7, align 8, !tbaa !153
  %19 = load i32, ptr %10, align 4, !tbaa !39
  %20 = add nsw i32 %19, 1
  %21 = sext i32 %20 to i64
  %22 = mul i64 64, %21
  call void @llvm.memset.p0.i64(ptr align 4 %18, i8 0, i64 %22, i1 false)
  %23 = load i32, ptr %12, align 4, !tbaa !39
  %24 = load ptr, ptr %7, align 8, !tbaa !153
  %25 = getelementptr inbounds nuw %struct.Str_Mux_t_, ptr %24, i32 0, i32 3
  store i32 %23, ptr %25, align 4, !tbaa !161
  %26 = load ptr, ptr %7, align 8, !tbaa !153
  %27 = getelementptr inbounds nuw %struct.Str_Mux_t_, ptr %26, i32 0, i32 4
  %28 = getelementptr inbounds [3 x %struct.Str_Edg_t_], ptr %27, i64 0, i64 0
  %29 = getelementptr inbounds nuw %struct.Str_Edg_t_, ptr %28, i32 0, i32 0
  store i32 1, ptr %29, align 4, !tbaa !155
  store i32 1, ptr %15, align 4, !tbaa !39
  br label %30

30:                                               ; preds = %134, %6
  %31 = load i32, ptr %15, align 4, !tbaa !39
  %32 = load i32, ptr %10, align 4, !tbaa !39
  %33 = icmp sle i32 %31, %32
  br i1 %33, label %34, label %137

34:                                               ; preds = %30
  %35 = load ptr, ptr %7, align 8, !tbaa !153
  %36 = load i32, ptr %15, align 4, !tbaa !39
  %37 = sext i32 %36 to i64
  %38 = getelementptr inbounds %struct.Str_Mux_t_, ptr %35, i64 %37
  store ptr %38, ptr %14, align 8, !tbaa !153
  %39 = load i32, ptr %15, align 4, !tbaa !39
  %40 = load ptr, ptr %14, align 8, !tbaa !153
  %41 = getelementptr inbounds nuw %struct.Str_Mux_t_, ptr %40, i32 0, i32 0
  store i32 %39, ptr %41, align 4, !tbaa !159
  %42 = load i32, ptr %12, align 4, !tbaa !39
  %43 = load ptr, ptr %14, align 8, !tbaa !153
  %44 = getelementptr inbounds nuw %struct.Str_Mux_t_, ptr %43, i32 0, i32 3
  store i32 %42, ptr %44, align 4, !tbaa !161
  %45 = load ptr, ptr %14, align 8, !tbaa !153
  %46 = getelementptr inbounds nuw %struct.Str_Mux_t_, ptr %45, i32 0, i32 2
  store i32 -1, ptr %46, align 4, !tbaa !162
  %47 = load ptr, ptr %14, align 8, !tbaa !153
  %48 = getelementptr inbounds nuw %struct.Str_Mux_t_, ptr %47, i32 0, i32 1
  store i32 -1, ptr %48, align 4, !tbaa !163
  %49 = load ptr, ptr %8, align 8, !tbaa !8
  %50 = load i32, ptr %9, align 4, !tbaa !39
  %51 = load i32, ptr %10, align 4, !tbaa !39
  %52 = add nsw i32 %50, %51
  %53 = load i32, ptr %15, align 4, !tbaa !39
  %54 = sub nsw i32 %52, %53
  %55 = call ptr @Str_NtkObj(ptr noundef %49, i32 noundef %54)
  store ptr %55, ptr %13, align 8, !tbaa !35
  store i32 0, ptr %16, align 4, !tbaa !39
  br label %56

56:                                               ; preds = %130, %34
  %57 = load i32, ptr %16, align 4, !tbaa !39
  %58 = icmp slt i32 %57, 3
  br i1 %58, label %59, label %133

59:                                               ; preds = %56
  %60 = load ptr, ptr %8, align 8, !tbaa !8
  %61 = load ptr, ptr %13, align 8, !tbaa !35
  %62 = load i32, ptr %16, align 4, !tbaa !39
  %63 = call i32 @Str_ObjFaninC(ptr noundef %60, ptr noundef %61, i32 noundef %62)
  %64 = load ptr, ptr %14, align 8, !tbaa !153
  %65 = getelementptr inbounds nuw %struct.Str_Mux_t_, ptr %64, i32 0, i32 4
  %66 = load i32, ptr %16, align 4, !tbaa !39
  %67 = sext i32 %66 to i64
  %68 = getelementptr inbounds [3 x %struct.Str_Edg_t_], ptr %65, i64 0, i64 %67
  %69 = getelementptr inbounds nuw %struct.Str_Edg_t_, ptr %68, i32 0, i32 1
  store i32 %63, ptr %69, align 4, !tbaa !158
  %70 = load ptr, ptr %8, align 8, !tbaa !8
  %71 = load ptr, ptr %13, align 8, !tbaa !35
  %72 = load i32, ptr %16, align 4, !tbaa !39
  %73 = call i32 @Str_ObjFaninId(ptr noundef %70, ptr noundef %71, i32 noundef %72)
  %74 = load i32, ptr %9, align 4, !tbaa !39
  %75 = icmp sge i32 %73, %74
  br i1 %75, label %76, label %91

76:                                               ; preds = %59
  %77 = load i32, ptr %9, align 4, !tbaa !39
  %78 = load i32, ptr %10, align 4, !tbaa !39
  %79 = add nsw i32 %77, %78
  %80 = load ptr, ptr %8, align 8, !tbaa !8
  %81 = load ptr, ptr %13, align 8, !tbaa !35
  %82 = load i32, ptr %16, align 4, !tbaa !39
  %83 = call i32 @Str_ObjFaninId(ptr noundef %80, ptr noundef %81, i32 noundef %82)
  %84 = sub nsw i32 %79, %83
  %85 = load ptr, ptr %14, align 8, !tbaa !153
  %86 = getelementptr inbounds nuw %struct.Str_Mux_t_, ptr %85, i32 0, i32 4
  %87 = load i32, ptr %16, align 4, !tbaa !39
  %88 = sext i32 %87 to i64
  %89 = getelementptr inbounds [3 x %struct.Str_Edg_t_], ptr %86, i64 0, i64 %88
  %90 = getelementptr inbounds nuw %struct.Str_Edg_t_, ptr %89, i32 0, i32 0
  store i32 %84, ptr %90, align 4, !tbaa !155
  br label %129

91:                                               ; preds = %59
  %92 = load i32, ptr %17, align 4, !tbaa !39
  %93 = add nsw i32 %92, 1
  store i32 %93, ptr %17, align 4, !tbaa !39
  %94 = sub nsw i32 0, %92
  %95 = load ptr, ptr %14, align 8, !tbaa !153
  %96 = getelementptr inbounds nuw %struct.Str_Mux_t_, ptr %95, i32 0, i32 4
  %97 = load i32, ptr %16, align 4, !tbaa !39
  %98 = sext i32 %97 to i64
  %99 = getelementptr inbounds [3 x %struct.Str_Edg_t_], ptr %96, i64 0, i64 %98
  %100 = getelementptr inbounds nuw %struct.Str_Edg_t_, ptr %99, i32 0, i32 0
  store i32 %94, ptr %100, align 4, !tbaa !155
  %101 = load ptr, ptr %8, align 8, !tbaa !8
  %102 = load ptr, ptr %13, align 8, !tbaa !35
  %103 = load i32, ptr %16, align 4, !tbaa !39
  %104 = call ptr @Str_ObjFanin(ptr noundef %101, ptr noundef %102, i32 noundef %103)
  %105 = getelementptr inbounds nuw %struct.Str_Obj_t_, ptr %104, i32 0, i32 3
  %106 = load i32, ptr %105, align 4, !tbaa !37
  %107 = load ptr, ptr %14, align 8, !tbaa !153
  %108 = getelementptr inbounds nuw %struct.Str_Mux_t_, ptr %107, i32 0, i32 4
  %109 = load i32, ptr %16, align 4, !tbaa !39
  %110 = sext i32 %109 to i64
  %111 = getelementptr inbounds [3 x %struct.Str_Edg_t_], ptr %108, i64 0, i64 %110
  %112 = getelementptr inbounds nuw %struct.Str_Edg_t_, ptr %111, i32 0, i32 3
  store i32 %106, ptr %112, align 4, !tbaa !164
  %113 = load ptr, ptr %11, align 8, !tbaa !61
  %114 = load ptr, ptr %14, align 8, !tbaa !153
  %115 = getelementptr inbounds nuw %struct.Str_Mux_t_, ptr %114, i32 0, i32 4
  %116 = load i32, ptr %16, align 4, !tbaa !39
  %117 = sext i32 %116 to i64
  %118 = getelementptr inbounds [3 x %struct.Str_Edg_t_], ptr %115, i64 0, i64 %117
  %119 = getelementptr inbounds nuw %struct.Str_Edg_t_, ptr %118, i32 0, i32 3
  %120 = load i32, ptr %119, align 4, !tbaa !164
  %121 = call i32 @Abc_Lit2Var(i32 noundef %120)
  %122 = call i32 @Vec_IntEntry(ptr noundef %113, i32 noundef %121)
  %123 = load ptr, ptr %14, align 8, !tbaa !153
  %124 = getelementptr inbounds nuw %struct.Str_Mux_t_, ptr %123, i32 0, i32 4
  %125 = load i32, ptr %16, align 4, !tbaa !39
  %126 = sext i32 %125 to i64
  %127 = getelementptr inbounds [3 x %struct.Str_Edg_t_], ptr %124, i64 0, i64 %126
  %128 = getelementptr inbounds nuw %struct.Str_Edg_t_, ptr %127, i32 0, i32 2
  store i32 %122, ptr %128, align 4, !tbaa !157
  br label %129

129:                                              ; preds = %91, %76
  br label %130

130:                                              ; preds = %129
  %131 = load i32, ptr %16, align 4, !tbaa !39
  %132 = add nsw i32 %131, 1
  store i32 %132, ptr %16, align 4, !tbaa !39
  br label %56, !llvm.loop !165

133:                                              ; preds = %56
  br label %134

134:                                              ; preds = %133
  %135 = load i32, ptr %15, align 4, !tbaa !39
  %136 = add nsw i32 %135, 1
  store i32 %136, ptr %15, align 4, !tbaa !39
  br label %30, !llvm.loop !166

137:                                              ; preds = %30
  call void @llvm.lifetime.end.p0(i64 4, ptr %17) #13
  call void @llvm.lifetime.end.p0(i64 4, ptr %16) #13
  call void @llvm.lifetime.end.p0(i64 4, ptr %15) #13
  call void @llvm.lifetime.end.p0(i64 8, ptr %14) #13
  call void @llvm.lifetime.end.p0(i64 8, ptr %13) #13
  ret void
}

; Function Attrs: nounwind uwtable
define i32 @Str_MuxRestructure1(ptr noundef %0, ptr noundef %1, i32 noundef %2, i32 noundef %3, ptr noundef %4, i32 noundef %5, i32 noundef %6) #0 {
  %8 = alloca i32, align 4
  %9 = alloca ptr, align 8
  %10 = alloca ptr, align 8
  %11 = alloca i32, align 4
  %12 = alloca i32, align 4
  %13 = alloca ptr, align 8
  %14 = alloca i32, align 4
  %15 = alloca i32, align 4
  %16 = alloca i32, align 4
  %17 = alloca [10000 x %struct.Str_Mux_t_], align 16
  %18 = alloca i32, align 4
  %19 = alloca i32, align 4
  %20 = alloca i32, align 4
  %21 = alloca i32, align 4
  store ptr %0, ptr %9, align 8, !tbaa !3
  store ptr %1, ptr %10, align 8, !tbaa !8
  store i32 %2, ptr %11, align 4, !tbaa !39
  store i32 %3, ptr %12, align 4, !tbaa !39
  store ptr %4, ptr %13, align 8, !tbaa !61
  store i32 %5, ptr %14, align 4, !tbaa !39
  store i32 %6, ptr %15, align 4, !tbaa !39
  call void @llvm.lifetime.start.p0(i64 4, ptr %16) #13
  store i32 10000, ptr %16, align 4, !tbaa !39
  call void @llvm.lifetime.start.p0(i64 640000, ptr %17) #13
  call void @llvm.lifetime.start.p0(i64 4, ptr %18) #13
  call void @llvm.lifetime.start.p0(i64 4, ptr %19) #13
  call void @llvm.lifetime.start.p0(i64 4, ptr %20) #13
  store i32 0, ptr %20, align 4, !tbaa !39
  %22 = load i32, ptr %12, align 4, !tbaa !39
  %23 = load i32, ptr %16, align 4, !tbaa !39
  %24 = icmp sge i32 %22, %23
  br i1 %24, label %25, label %26

25:                                               ; preds = %7
  store i32 -1, ptr %8, align 4
  store i32 1, ptr %21, align 4
  br label %65

26:                                               ; preds = %7
  %27 = getelementptr inbounds [10000 x %struct.Str_Mux_t_], ptr %17, i64 0, i64 0
  %28 = load ptr, ptr %10, align 8, !tbaa !8
  %29 = load i32, ptr %11, align 4, !tbaa !39
  %30 = load i32, ptr %12, align 4, !tbaa !39
  %31 = load ptr, ptr %13, align 8, !tbaa !61
  %32 = load i32, ptr %14, align 4, !tbaa !39
  call void @Str_MuxCreate(ptr noundef %27, ptr noundef %28, i32 noundef %29, i32 noundef %30, ptr noundef %31, i32 noundef %32)
  %33 = getelementptr inbounds [10000 x %struct.Str_Mux_t_], ptr %17, i64 0, i64 0
  %34 = call i32 @Str_MuxDelayEdge_rec(ptr noundef %33, i32 noundef 0)
  store i32 %34, ptr %18, align 4, !tbaa !39
  br label %35

35:                                               ; preds = %46, %26
  br label %36

36:                                               ; preds = %35
  %37 = load ptr, ptr %9, align 8, !tbaa !3
  %38 = load ptr, ptr %10, align 8, !tbaa !8
  %39 = getelementptr inbounds [10000 x %struct.Str_Mux_t_], ptr %17, i64 0, i64 0
  %40 = getelementptr inbounds [10000 x %struct.Str_Mux_t_], ptr %17, i64 0, i64 0
  %41 = load ptr, ptr %13, align 8, !tbaa !61
  %42 = load i32, ptr %15, align 4, !tbaa !39
  %43 = call i32 @Str_MuxTryOnce(ptr noundef %37, ptr noundef %38, ptr noundef %39, ptr noundef %40, i32 noundef 0, ptr noundef %41, i32 noundef %42)
  %44 = icmp ne i32 %43, 0
  br i1 %44, label %46, label %45

45:                                               ; preds = %36
  br label %47

46:                                               ; preds = %36
  store i32 1, ptr %20, align 4, !tbaa !39
  br label %35

47:                                               ; preds = %45
  %48 = load i32, ptr %20, align 4, !tbaa !39
  %49 = icmp ne i32 %48, 0
  br i1 %49, label %51, label %50

50:                                               ; preds = %47
  store i32 -1, ptr %8, align 4
  store i32 1, ptr %21, align 4
  br label %65

51:                                               ; preds = %47
  %52 = getelementptr inbounds [10000 x %struct.Str_Mux_t_], ptr %17, i64 0, i64 0
  %53 = call i32 @Str_MuxDelayEdge_rec(ptr noundef %52, i32 noundef 0)
  store i32 %53, ptr %19, align 4, !tbaa !39
  %54 = load i32, ptr %18, align 4, !tbaa !39
  %55 = load i32, ptr %19, align 4, !tbaa !39
  %56 = sub nsw i32 %54, %55
  %57 = load ptr, ptr %10, align 8, !tbaa !8
  %58 = getelementptr inbounds nuw %struct.Str_Ntk_t_, ptr %57, i32 0, i32 7
  %59 = load i32, ptr %58, align 8, !tbaa !174
  %60 = add nsw i32 %59, %56
  store i32 %60, ptr %58, align 8, !tbaa !174
  %61 = load ptr, ptr %9, align 8, !tbaa !3
  %62 = getelementptr inbounds [10000 x %struct.Str_Mux_t_], ptr %17, i64 0, i64 0
  %63 = load ptr, ptr %13, align 8, !tbaa !61
  %64 = call i32 @Str_MuxToGia_rec(ptr noundef %61, ptr noundef %62, i32 noundef 0, ptr noundef %63)
  store i32 %64, ptr %8, align 4
  store i32 1, ptr %21, align 4
  br label %65

65:                                               ; preds = %51, %50, %25
  call void @llvm.lifetime.end.p0(i64 4, ptr %20) #13
  call void @llvm.lifetime.end.p0(i64 4, ptr %19) #13
  call void @llvm.lifetime.end.p0(i64 4, ptr %18) #13
  call void @llvm.lifetime.end.p0(i64 640000, ptr %17) #13
  call void @llvm.lifetime.end.p0(i64 4, ptr %16) #13
  %66 = load i32, ptr %8, align 4
  ret i32 %66
}