; Function Attrs: nounwind uwtable
define i32 @Str_MuxRestructure1(ptr noundef %0, ptr noundef captures(none) %1, i32 noundef %2, i32 noundef %3, ptr noundef %4, i32 noundef %5, i32 noundef %6) local_unnamed_addr #0 {
  %8 = alloca [10000 x %struct.Str_Mux_t_], align 16
  call void @llvm.lifetime.start.p0(i64 640000, ptr nonnull %8) #26
  %9 = icmp sgt i32 %3, 9999
  br i1 %9, label %64, label %10

10:                                               ; preds = %7
  %11 = add nsw i32 %3, 1
  %12 = sext i32 %11 to i64
  %13 = shl nsw i64 %12, 6
  call void @llvm.memset.p0.i64(ptr nonnull align 16 %8, i8 0, i64 %13, i1 false)
  %14 = getelementptr inbounds nuw i8, ptr %8, i64 12
  store i32 %5, ptr %14, align 4, !tbaa !142
  %15 = getelementptr inbounds nuw i8, ptr %8, i64 16
  store i32 1, ptr %15, align 16, !tbaa !136
  %.not66.i = icmp slt i32 %3, 1
  br i1 %.not66.i, label %Str_MuxCreate.exit, label %.lr.ph.i

.lr.ph.i:                                         ; preds = %10
  %16 = add nsw i32 %3, %2
  %17 = getelementptr i8, ptr %1, i64 8
  %.val58.i = load ptr, ptr %17, align 8, !tbaa !33
  %18 = getelementptr i8, ptr %1, i64 24
  %.val62.i = load ptr, ptr %18, align 8, !tbaa !36
  %19 = getelementptr i8, ptr %4, i64 8
  %20 = sext i32 %16 to i64
  %wide.trip.count.i = zext nneg i32 %11 to i64
  br label %21

21:                                               ; preds = %52, %.lr.ph.i
  %indvars.iv70.i = phi i64 [ 1, %.lr.ph.i ], [ %indvars.iv.next71.i, %52 ]
  %.068.i = phi i32 [ 0, %.lr.ph.i ], [ %.2.i, %52 ]
  %22 = getelementptr inbounds nuw %struct.Str_Mux_t_, ptr %8, i64 %indvars.iv70.i
  %23 = trunc nuw nsw i64 %indvars.iv70.i to i32
  store i32 %23, ptr %22, align 16, !tbaa !139
  %24 = getelementptr inbounds nuw i8, ptr %22, i64 12
  store i32 %5, ptr %24, align 4, !tbaa !142
  %25 = getelementptr inbounds nuw i8, ptr %22, i64 8
  store i32 -1, ptr %25, align 8, !tbaa !143
  %26 = getelementptr inbounds nuw i8, ptr %22, i64 4
  store i32 -1, ptr %26, align 4, !tbaa !144
  %27 = sub nsw i64 %20, %indvars.iv70.i
  %28 = getelementptr %struct.Str_Obj_t_, ptr %.val58.i, i64 %27, i32 1
  %.val63.i = load i32, ptr %28, align 4, !tbaa !37
  %29 = getelementptr inbounds nuw i8, ptr %22, i64 16
  %30 = sext i32 %.val63.i to i64
  %invariant.gep.i = getelementptr i32, ptr %.val62.i, i64 %30
  br label %31

31:                                               ; preds = %51, %21
  %indvars.iv.i = phi i64 [ 0, %21 ], [ %indvars.iv.next.i, %51 ]
  %.165.i = phi i32 [ %.068.i, %21 ], [ %.2.i, %51 ]
  %gep.i = getelementptr i32, ptr %invariant.gep.i, i64 %indvars.iv.i
  %32 = load i32, ptr %gep.i, align 4, !tbaa !38
  %33 = and i32 %32, 1
  %34 = getelementptr inbounds nuw [3 x %struct.Str_Edg_t_], ptr %29, i64 0, i64 %indvars.iv.i
  %35 = getelementptr inbounds nuw i8, ptr %34, i64 4
  store i32 %33, ptr %35, align 4, !tbaa !141
  %36 = ashr i32 %32, 1
  %.not53.i = icmp slt i32 %36, %2
  br i1 %.not53.i, label %39, label %37

37:                                               ; preds = %31
  %38 = sub nsw i32 %16, %36
  store i32 %38, ptr %34, align 16, !tbaa !136
  br label %51

39:                                               ; preds = %31
  %40 = add nsw i32 %.165.i, 1
  %41 = sub nsw i32 0, %.165.i
  store i32 %41, ptr %34, align 16, !tbaa !136
  %42 = sext i32 %36 to i64
  %43 = getelementptr inbounds %struct.Str_Obj_t_, ptr %.val58.i, i64 %42, i32 3
  %44 = load i32, ptr %43, align 4, !tbaa !34
  %45 = getelementptr inbounds nuw i8, ptr %34, i64 12
  store i32 %44, ptr %45, align 4, !tbaa !145
  %46 = ashr i32 %44, 1
  %.val.i = load ptr, ptr %19, align 8, !tbaa !36
  %47 = sext i32 %46 to i64
  %48 = getelementptr inbounds i32, ptr %.val.i, i64 %47
  %49 = load i32, ptr %48, align 4, !tbaa !38
  %50 = getelementptr inbounds nuw i8, ptr %34, i64 8
  store i32 %49, ptr %50, align 8, !tbaa !138
  br label %51

51:                                               ; preds = %39, %37
  %.2.i = phi i32 [ %.165.i, %37 ], [ %40, %39 ]
  %indvars.iv.next.i = add nuw nsw i64 %indvars.iv.i, 1
  %exitcond.not.i = icmp eq i64 %indvars.iv.next.i, 3
  br i1 %exitcond.not.i, label %52, label %31, !llvm.loop !146

52:                                               ; preds = %51
  %indvars.iv.next71.i = add nuw nsw i64 %indvars.iv70.i, 1
  %exitcond73.not.i = icmp eq i64 %indvars.iv.next71.i, %wide.trip.count.i
  br i1 %exitcond73.not.i, label %Str_MuxCreate.exit, label %21, !llvm.loop !147

Str_MuxCreate.exit:                               ; preds = %52, %10
  %53 = call i32 @Str_MuxDelayEdge_rec(ptr noundef nonnull %8, i32 noundef 0)
  br label %54

54:                                               ; preds = %54, %Str_MuxCreate.exit
  %.not19 = phi i1 [ true, %Str_MuxCreate.exit ], [ false, %54 ]
  %55 = call i32 @Str_MuxTryOnce(ptr noundef %0, ptr poison, ptr noundef nonnull %8, ptr noundef nonnull %8, i32 noundef 0, ptr noundef %4, i32 noundef %6)
  %.not = icmp eq i32 %55, 0
  br i1 %.not, label %56, label %54

56:                                               ; preds = %54
  br i1 %.not19, label %64, label %57

57:                                               ; preds = %56
  %58 = call i32 @Str_MuxDelayEdge_rec(ptr noundef nonnull %8, i32 noundef 0)
  %59 = sub i32 %53, %58
  %60 = getelementptr inbounds nuw i8, ptr %1, i64 72
  %61 = load i32, ptr %60, align 8, !tbaa !155
  %62 = add nsw i32 %59, %61
  store i32 %62, ptr %60, align 8, !tbaa !155
  %63 = call i32 @Str_MuxToGia_rec(ptr noundef %0, ptr noundef nonnull %8, i32 noundef 0, ptr noundef %4)
  br label %64

64:                                               ; preds = %56, %7, %57
  %.017 = phi i32 [ %63, %57 ], [ -1, %7 ], [ -1, %56 ]
  call void @llvm.lifetime.end.p0(i64 640000, ptr nonnull %8) #26
  ret i32 %.017
}